target datalayout = "e-m:e-p270:32:32-p271:32:32-p272:64:64-i64:64-i128:128-f80:128-n8:16:32:64-S128"
target triple = "x86_64-pc-linux-gnu"

%"class.sls::bvect" = type <{ %class.svector, i32, i32, i32, [4 x i8] }>
%class.svector = type { %class.vector }
%class.vector = type { ptr }
%class.mpn_manager = type { i8 }

; Function Attrs: mustprogress nounwind uwtable
define linkonce_odr hidden noundef ptr @_ZNK6vectorIjLb0EjE4dataEv(ptr noundef nonnull align 8 dereferenceable(8) %0) #5 comdat align 2 {
  %2 = alloca ptr, align 8
  store ptr %0, ptr %2, align 8, !tbaa !17
  %3 = load ptr, ptr %2, align 8
  %4 = getelementptr inbounds nuw %class.vector, ptr %3, i32 0, i32 0
  %5 = load ptr, ptr %4, align 8, !tbaa !19
  ret ptr %5
}

; Function Attrs: mustprogress uwtable
define hidden noundef zeroext i1 @_ZN3slsltERKNS_5bvectES2_(ptr noundef nonnull align 8 dereferenceable(20) %0, ptr noundef nonnull align 8 dereferenceable(20) %1) #4 {
  %3 = alloca ptr, align 8
  %4 = alloca ptr, align 8
  %5 = alloca %class.mpn_manager, align 1
  store ptr %0, ptr %3, align 8, !tbaa !3
  store ptr %1, ptr %4, align 8, !tbaa !3
  call void @llvm.lifetime.start.p0(i64 1, ptr %5) #3
  %6 = load ptr, ptr %3, align 8, !tbaa !3
  %7 = call noundef ptr @_ZNK6vectorIjLb0EjE4dataEv(ptr noundef nonnull align 8 dereferenceable(8) %6)
  %8 = load ptr, ptr %3, align 8, !tbaa !3
  %9 = getelementptr inbounds nuw %"class.sls::bvect", ptr %8, i32 0, i32 2
  %10 = load i32, ptr %9, align 4, !tbaa !15
  %11 = load ptr, ptr %4, align 8, !tbaa !3
  %12 = call noundef ptr @_ZNK6vectorIjLb0EjE4dataEv(ptr noundef nonnull align 8 dereferenceable(8) %11)
  %13 = load ptr, ptr %3, align 8, !tbaa !3
  %14 = getelementptr inbounds nuw %"class.sls::bvect", ptr %13, i32 0, i32 2
  %15 = load i32, ptr %14, align 4, !tbaa !15
  %16 = call noundef i32 @_ZNK11mpn_manager7compareEPKjjS1_j(ptr noundef nonnull align 1 dereferenceable(1) %5, ptr noundef %7, i32 noundef %10, ptr noundef %12, i32 noundef %15)
  %17 = icmp slt i32 %16, 0
  call void @llvm.lifetime.end.p0(i64 1, ptr %5) #3
  ret i1 %17
}