; Function Attrs: mustprogress uwtable
define hidden noundef zeroext i1 @_ZN3slsltERKNS_5bvectES2_(ptr noundef nonnull readonly align 8 captures(none) dereferenceable(20) %0, ptr noundef nonnull readonly align 8 captures(none) dereferenceable(20) %1) local_unnamed_addr #3 {
  %3 = alloca %class.mpn_manager, align 1
  call void @llvm.lifetime.start.p0(i64 1, ptr nonnull %3) #29
  %4 = load ptr, ptr %0, align 8, !tbaa !14
  %5 = getelementptr inbounds nuw i8, ptr %0, i64 12
  %6 = load i32, ptr %5, align 4, !tbaa !12
  %7 = load ptr, ptr %1, align 8, !tbaa !14
  %8 = call noundef i32 @_ZNK11mpn_manager7compareEPKjjS1_j(ptr noundef nonnull align 1 dereferenceable(1) %3, ptr noundef %4, i32 noundef %6, ptr noundef %7, i32 noundef %6)
  %9 = icmp slt i32 %8, 0
  call void @llvm.lifetime.end.p0(i64 1, ptr nonnull %3) #29
  ret i1 %9
}